; ModuleID = '7/900.c'
source_filename = "7/900.c"
target datalayout = "e-m:e-p270:32:32-p271:32:32-p272:64:64-i64:64-f80:128-n8:16:32:64-S128"
target triple = "x86_64-pc-linux-gnu"

@.str = private unnamed_addr constant [9 x i8] c"%s %s %s\00", align 1
@.str.1 = private unnamed_addr constant [4 x i8] c"%s\0A\00", align 1

; Function Attrs: noinline nounwind uwtable
define dso_local void @main() #0 {
  %1 = alloca i32, align 4
  %2 = alloca i32, align 4
  %3 = alloca i32, align 4
  %4 = alloca i32, align 4
  %5 = alloca i32, align 4
  %6 = alloca [260 x i8], align 16
  %7 = alloca [260 x i8], align 16
  %8 = alloca [260 x i8], align 16
  %9 = alloca [260 x i8], align 16
  %10 = call i32 (i8*, ...) @__isoc99_scanf(i8* getelementptr inbounds ([9 x i8], [9 x i8]* @.str, i64 0, i64 0), [260 x i8]* %7, [260 x i8]* %8, [260 x i8]* %9)
  %11 = getelementptr inbounds [260 x i8], [260 x i8]* %7, i64 0, i64 0
  %12 = call i64 @strlen(i8* %11) #3
  %13 = trunc i64 %12 to i32
  store i32 %13, i32* %1, align 4
  %14 = getelementptr inbounds [260 x i8], [260 x i8]* %8, i64 0, i64 0
  %15 = call i64 @strlen(i8* %14) #3
  %16 = trunc i64 %15 to i32
  store i32 %16, i32* %2, align 4
  %17 = getelementptr inbounds [260 x i8], [260 x i8]* %9, i64 0, i64 0
  %18 = call i64 @strlen(i8* %17) #3
  %19 = trunc i64 %18 to i32
  store i32 %19, i32* %3, align 4
  %20 = load i32, i32* %1, align 4
  %21 = sext i32 %20 to i64
  %22 = getelementptr inbounds [260 x i8], [260 x i8]* %7, i64 0, i64 %21
  store i8 0, i8* %22, align 1
  %23 = load i32, i32* %2, align 4
  %24 = sext i32 %23 to i64
  %25 = getelementptr inbounds [260 x i8], [260 x i8]* %8, i64 0, i64 %24
  store i8 0, i8* %25, align 1
  %26 = load i32, i32* %3, align 4
  %27 = sext i32 %26 to i64
  %28 = getelementptr inbounds [260 x i8], [260 x i8]* %9, i64 0, i64 %27
  store i8 0, i8* %28, align 1
  store i32 0, i32* %4, align 4
  br label %29

29:                                               ; preds = %64, %0
  %30 = load i32, i32* %4, align 4
  %31 = load i32, i32* %1, align 4
  %32 = load i32, i32* %2, align 4
  %33 = sub nsw i32 %31, %32
  %34 = add nsw i32 %33, 1
  %35 = icmp slt i32 %30, %34
  br i1 %35, label %36, label %67

36:                                               ; preds = %29
  store i32 0, i32* %5, align 4
  br label %37

37:                                               ; preds = %51, %36
  %38 = load i32, i32* %5, align 4
  %39 = load i32, i32* %2, align 4
  %40 = icmp slt i32 %38, %39
  br i1 %40, label %41, label %54

41:                                               ; preds = %37
  %42 = load i32, i32* %4, align 4
  %43 = load i32, i32* %5, align 4
  %44 = add nsw i32 %42, %43
  %45 = sext i32 %44 to i64
  %46 = getelementptr inbounds [260 x i8], [260 x i8]* %7, i64 0, i64 %45
  %47 = load i8, i8* %46, align 1
  %48 = load i32, i32* %5, align 4
  %49 = sext i32 %48 to i64
  %50 = getelementptr inbounds [260 x i8], [260 x i8]* %6, i64 0, i64 %49
  store i8 %47, i8* %50, align 1
  br label %51

51:                                               ; preds = %41
  %52 = load i32, i32* %5, align 4
  %53 = add nsw i32 %52, 1
  store i32 %53, i32* %5, align 4
  br label %37

54:                                               ; preds = %37
  %55 = load i32, i32* %5, align 4
  %56 = sext i32 %55 to i64
  %57 = getelementptr inbounds [260 x i8], [260 x i8]* %6, i64 0, i64 %56
  store i8 0, i8* %57, align 1
  %58 = getelementptr inbounds [260 x i8], [260 x i8]* %6, i64 0, i64 0
  %59 = getelementptr inbounds [260 x i8], [260 x i8]* %8, i64 0, i64 0
  %60 = call i32 @strcmp(i8* %58, i8* %59) #3
  %61 = icmp eq i32 %60, 0
  br i1 %61, label %62, label %63

62:                                               ; preds = %54
  br label %67

63:                                               ; preds = %54
  br label %64

64:                                               ; preds = %63
  %65 = load i32, i32* %4, align 4
  %66 = add nsw i32 %65, 1
  store i32 %66, i32* %4, align 4
  br label %29

67:                                               ; preds = %62, %29
  %68 = load i32, i32* %4, align 4
  %69 = load i32, i32* %1, align 4
  %70 = load i32, i32* %2, align 4
  %71 = sub nsw i32 %69, %70
  %72 = add nsw i32 %71, 1
  %73 = icmp ne i32 %68, %72
  br i1 %73, label %74, label %93

74:                                               ; preds = %67
  store i32 0, i32* %5, align 4
  br label %75

75:                                               ; preds = %89, %74
  %76 = load i32, i32* %5, align 4
  %77 = load i32, i32* %3, align 4
  %78 = icmp slt i32 %76, %77
  br i1 %78, label %79, label %92

79:                                               ; preds = %75
  %80 = load i32, i32* %5, align 4
  %81 = sext i32 %80 to i64
  %82 = getelementptr inbounds [260 x i8], [260 x i8]* %9, i64 0, i64 %81
  %83 = load i8, i8* %82, align 1
  %84 = load i32, i32* %4, align 4
  %85 = load i32, i32* %5, align 4
  %86 = add nsw i32 %84, %85
  %87 = sext i32 %86 to i64
  %88 = getelementptr inbounds [260 x i8], [260 x i8]* %7, i64 0, i64 %87
  store i8 %83, i8* %88, align 1
  br label %89

89:                                               ; preds = %79
  %90 = load i32, i32* %5, align 4
  %91 = add nsw i32 %90, 1
  store i32 %91, i32* %5, align 4
  br label %75

92:                                               ; preds = %75
  br label %93

93:                                               ; preds = %92, %67
  %94 = getelementptr inbounds [260 x i8], [260 x i8]* %7, i64 0, i64 0
  %95 = call i32 (i8*, ...) @printf(i8* getelementptr inbounds ([4 x i8], [4 x i8]* @.str.1, i64 0, i64 0), i8* %94)
  ret void
}

declare dso_local i32 @__isoc99_scanf(i8*, ...) #1

; Function Attrs: nounwind readonly
declare dso_local i64 @strlen(i8*) #2

; Function Attrs: nounwind readonly
declare dso_local i32 @strcmp(i8*, i8*) #2

declare dso_local i32 @printf(i8*, ...) #1


!llvm.module.flags = !{!0}
!llvm.ident = !{!1}

!0 = !{i32 1, !"wchar_size", i32 4}
!1 = !{!"clang version 10.0.0-4ubuntu1 "}
